; ModuleID = 'source-C-CXX/26/1613.c'
source_filename = "source-C-CXX/26/1613.c"
target datalayout = "e-m:e-p270:32:32-p271:32:32-p272:64:64-i64:64-f80:128-n8:16:32:64-S128"
target triple = "x86_64-pc-linux-gnu"

@.str = private unnamed_addr constant [3 x i8] c"%d\00", align 1
@.str.1 = private unnamed_addr constant [10 x i8] c"%lf%lf%lf\00", align 1
@.str.2 = private unnamed_addr constant [35 x i8] c"x1=%.5lf+%.5lf%c;x2=%.5lf-%.5lf%c\0A\00", align 1
@.str.3 = private unnamed_addr constant [13 x i8] c"x1=x2=%.5lf\0A\00", align 1
@.str.4 = private unnamed_addr constant [19 x i8] c"x1=%.5lf;x2=%.5lf\0A\00", align 1

; Function Attrs: nofree nounwind sspstrong uwtable
define dso_local i32 @main() local_unnamed_addr #0 {
  %1 = alloca double, align 8
  %2 = alloca double, align 8
  %3 = alloca double, align 8
  %4 = alloca i32, align 4
  %5 = bitcast double* %1 to i8*
  call void @llvm.lifetime.start.p0i8(i64 8, i8* nonnull %5) #4
  %6 = bitcast double* %2 to i8*
  call void @llvm.lifetime.start.p0i8(i64 8, i8* nonnull %6) #4
  %7 = bitcast double* %3 to i8*
  call void @llvm.lifetime.start.p0i8(i64 8, i8* nonnull %7) #4
  %8 = bitcast i32* %4 to i8*
  call void @llvm.lifetime.start.p0i8(i64 4, i8* nonnull %8) #4
  %9 = call i32 (i8*, ...) @__isoc99_scanf(i8* getelementptr inbounds ([3 x i8], [3 x i8]* @.str, i64 0, i64 0), i32* nonnull %4)
  %10 = load i32, i32* %4, align 4, !tbaa !5
  %11 = icmp slt i32 %10, 1
  br i1 %11, label %86, label %12

12:                                               ; preds = %0, %82
  %13 = phi i32 [ %83, %82 ], [ 1, %0 ]
  %14 = call i32 (i8*, ...) @__isoc99_scanf(i8* getelementptr inbounds ([10 x i8], [10 x i8]* @.str.1, i64 0, i64 0), double* nonnull %1, double* nonnull %2, double* nonnull %3)
  %15 = load double, double* %2, align 8, !tbaa !9
  %16 = fmul double %15, %15
  %17 = load double, double* %1, align 8, !tbaa !9
  %18 = fmul double %17, 4.000000e+00
  %19 = load double, double* %3, align 8, !tbaa !9
  %20 = fmul double %18, %19
  %21 = fsub double %16, %20
  %22 = fcmp olt double %21, 0.000000e+00
  br i1 %22, label %23, label %41

23:                                               ; preds = %12
  %24 = fmul double %17, -2.000000e+00
  %25 = fdiv double %15, %24
  %26 = fsub double %20, %16
  %27 = call double @sqrt(double %26) #4
  %28 = load double, double* %1, align 8, !tbaa !9
  %29 = fmul double %28, 2.000000e+00
  %30 = fdiv double %27, %29
  %31 = fcmp oeq double %25, 0.000000e+00
  %32 = select i1 %31, double 0.000000e+00, double %25
  %33 = call i32 (i8*, ...) @printf(i8* nonnull dereferenceable(1) getelementptr inbounds ([35 x i8], [35 x i8]* @.str.2, i64 0, i64 0), double %32, double %30, i32 105, double %32, double %30, i32 105)
  %34 = load double, double* %2, align 8, !tbaa !9
  %35 = load double, double* %1, align 8, !tbaa !9
  %36 = load double, double* %3, align 8, !tbaa !9
  %37 = fmul double %34, %34
  %38 = fmul double %35, 4.000000e+00
  %39 = fmul double %38, %36
  %40 = fsub double %37, %39
  br label %41

41:                                               ; preds = %23, %12
  %42 = phi double [ %40, %23 ], [ %21, %12 ]
  %43 = phi double [ %34, %23 ], [ %15, %12 ]
  %44 = fcmp oeq double %42, 0.000000e+00
  br i1 %44, label %45, label %59

45:                                               ; preds = %41
  %46 = call double @sqrt(double %42) #4
  %47 = fsub double %46, %43
  %48 = load double, double* %1, align 8, !tbaa !9
  %49 = fmul double %48, 2.000000e+00
  %50 = fdiv double %47, %49
  %51 = call i32 (i8*, ...) @printf(i8* nonnull dereferenceable(1) getelementptr inbounds ([13 x i8], [13 x i8]* @.str.3, i64 0, i64 0), double %50)
  %52 = load double, double* %2, align 8, !tbaa !9
  %53 = load double, double* %1, align 8, !tbaa !9
  %54 = load double, double* %3, align 8, !tbaa !9
  %55 = fmul double %52, %52
  %56 = fmul double %53, 4.000000e+00
  %57 = fmul double %56, %54
  %58 = fsub double %55, %57
  br label %59

59:                                               ; preds = %45, %41
  %60 = phi double [ %58, %45 ], [ %42, %41 ]
  %61 = phi double [ %52, %45 ], [ %43, %41 ]
  %62 = fcmp ogt double %60, 0.000000e+00
  br i1 %62, label %63, label %82

63:                                               ; preds = %59
  %64 = call double @sqrt(double %60) #4
  %65 = fsub double %64, %61
  %66 = load double, double* %1, align 8, !tbaa !9
  %67 = fmul double %66, 2.000000e+00
  %68 = fdiv double %65, %67
  %69 = load double, double* %2, align 8, !tbaa !9
  %70 = fneg double %69
  %71 = fmul double %69, %69
  %72 = fmul double %66, 4.000000e+00
  %73 = load double, double* %3, align 8, !tbaa !9
  %74 = fmul double %72, %73
  %75 = fsub double %71, %74
  %76 = call double @sqrt(double %75) #4
  %77 = fsub double %70, %76
  %78 = load double, double* %1, align 8, !tbaa !9
  %79 = fmul double %78, 2.000000e+00
  %80 = fdiv double %77, %79
  %81 = call i32 (i8*, ...) @printf(i8* nonnull dereferenceable(1) getelementptr inbounds ([19 x i8], [19 x i8]* @.str.4, i64 0, i64 0), double %68, double %80)
  br label %82

82:                                               ; preds = %59, %63
  %83 = add nuw nsw i32 %13, 1
  %84 = load i32, i32* %4, align 4, !tbaa !5
  %85 = icmp slt i32 %13, %84
  br i1 %85, label %12, label %86, !llvm.loop !11

86:                                               ; preds = %82, %0
  call void @llvm.lifetime.end.p0i8(i64 4, i8* nonnull %8) #4
  call void @llvm.lifetime.end.p0i8(i64 8, i8* nonnull %7) #4
  call void @llvm.lifetime.end.p0i8(i64 8, i8* nonnull %6) #4
  call void @llvm.lifetime.end.p0i8(i64 8, i8* nonnull %5) #4
  ret i32 0
}

; Function Attrs: argmemonly mustprogress nofree nosync nounwind willreturn
declare void @llvm.lifetime.start.p0i8(i64 immarg, i8* nocapture) #1

; Function Attrs: nofree nounwind
declare noundef i32 @__isoc99_scanf(i8* nocapture noundef readonly, ...) local_unnamed_addr #2

; Function Attrs: mustprogress nofree nounwind willreturn
declare double @sqrt(double) local_unnamed_addr #3

; Function Attrs: nofree nounwind
declare noundef i32 @printf(i8* nocapture noundef readonly, ...) local_unnamed_addr #2

; Function Attrs: argmemonly mustprogress nofree nosync nounwind willreturn
declare void @llvm.lifetime.end.p0i8(i64 immarg, i8* nocapture) #1


!llvm.module.flags = !{!0, !1, !2, !3}
!llvm.ident = !{!4}

!0 = !{i32 1, !"wchar_size", i32 4}
!1 = !{i32 7, !"PIC Level", i32 2}
!2 = !{i32 7, !"PIE Level", i32 2}
!3 = !{i32 7, !"uwtable", i32 1}
!4 = !{!"clang version 13.0.0"}
!5 = !{!6, !6, i64 0}
!6 = !{!"int", !7, i64 0}
!7 = !{!"omnipotent char", !8, i64 0}
!8 = !{!"Simple C/C++ TBAA"}
!9 = !{!10, !10, i64 0}
!10 = !{!"double", !7, i64 0}
!11 = distinct !{!11, !12}
!12 = !{!"llvm.loop.mustprogress"}
